target datalayout = "e-m:e-p270:32:32-p271:32:32-p272:64:64-i64:64-i128:128-f80:128-n8:16:32:64-S128"
target triple = "x86_64-pc-linux-gnu"

%struct.ReplicationSlotCtlData = type { [1 x %struct.ReplicationSlot] }
%struct.ReplicationSlot = type { i8, i8, i32, i8, i8, i32, i32, %struct.ReplicationSlotPersistentData, %struct.LWLock, %struct.ConditionVariable, i32, i64, i64, i64, i64, i64 }
%struct.ReplicationSlotPersistentData = type { %struct.nameData, i32, i32, i32, i32, i64, i32, i64, i64, i8, %struct.nameData, i8, i8 }
%struct.nameData = type { [64 x i8] }
%struct.LWLock = type { i16, %struct.pg_atomic_uint32, %struct.proclist_head }
%struct.pg_atomic_uint32 = type { i32 }
%struct.proclist_head = type { i32, i32 }
%struct.ConditionVariable = type { i8, %struct.proclist_head }
%union.LWLockPadded = type { %struct.LWLock, [112 x i8] }

@ReplicationSlotCtl = dso_local global ptr null, align 8
@MyReplicationSlot = dso_local global ptr null, align 8
@max_replication_slots = dso_local global i32 10, align 4
@.str.6 = private unnamed_addr constant [7 x i8] c"slot.c\00", align 1
@MainLWLockArray = external global ptr, align 8
@MyProcPid = external global i32, align 4
@.str.18 = private unnamed_addr constant [43 x i8] c"replication slot \22%s\22 is active for PID %d\00", align 1
@__func__.ReplicationSlotsDropDBSlots = private unnamed_addr constant [28 x i8] c"ReplicationSlotsDropDBSlots\00", align 1

; Function Attrs: nounwind uwtable
define dso_local void @ReplicationSlotDropAcquired() #0 {
  %1 = alloca ptr, align 8
  call void @llvm.lifetime.start.p0(i64 8, ptr %1) #12
  %2 = load ptr, ptr @MyReplicationSlot, align 8
  store ptr %2, ptr %1, align 8
  store ptr null, ptr @MyReplicationSlot, align 8
  %3 = load ptr, ptr %1, align 8
  call void @ReplicationSlotDropPtr(ptr noundef %3)
  call void @llvm.lifetime.end.p0(i64 8, ptr %1) #12
  ret void
}

; Function Attrs: inlinehint nounwind uwtable
define internal i32 @tas(ptr noundef %0) #7 {
  %2 = alloca ptr, align 8
  %3 = alloca i8, align 1
  store ptr %0, ptr %2, align 8
  call void @llvm.lifetime.start.p0(i64 1, ptr %3) #12
  store i8 1, ptr %3, align 1
  %4 = load i8, ptr %3, align 1
  %5 = load ptr, ptr %2, align 8
  %6 = call i8 asm sideeffect "\09lock\09\09\09\0A\09xchgb\09$0,$1\09\0A", "=q,=*m,0,*m,~{memory},~{cc},~{dirflag},~{fpsr},~{flags}"(ptr elementtype(i8) %5, i8 %4, ptr elementtype(i8) %5) #12, !srcloc !13
  store i8 %6, ptr %3, align 1
  %7 = load i8, ptr %3, align 1
  %8 = zext i8 %7 to i32
  call void @llvm.lifetime.end.p0(i64 1, ptr %3) #12
  ret i32 %8
}

; Function Attrs: nounwind uwtable
define dso_local void @ReplicationSlotsDropDBSlots(i32 noundef %0) #0 {
  %2 = alloca i32, align 4
  %3 = alloca i32, align 4
  %4 = alloca i32, align 4
  %5 = alloca ptr, align 8
  %6 = alloca ptr, align 8
  %7 = alloca i32, align 4
  store i32 %0, ptr %2, align 4
  call void @llvm.lifetime.start.p0(i64 4, ptr %3) #12
  %8 = load i32, ptr @max_replication_slots, align 4
  %9 = icmp sle i32 %8, 0
  br i1 %9, label %10, label %11

10:                                               ; preds = %1
  store i32 1, ptr %4, align 4
  br label %105

11:                                               ; preds = %1
  br label %12

12:                                               ; preds = %97, %11
  %13 = load ptr, ptr @MainLWLockArray, align 8
  %14 = getelementptr inbounds %union.LWLockPadded, ptr %13, i64 37
  %15 = call zeroext i1 @LWLockAcquire(ptr noundef %14, i32 noundef 1)
  store i32 0, ptr %3, align 4
  br label %16

16:                                               ; preds = %99, %12
  %17 = load i32, ptr %3, align 4
  %18 = load i32, ptr @max_replication_slots, align 4
  %19 = icmp slt i32 %17, %18
  br i1 %19, label %20, label %102

20:                                               ; preds = %16
  call void @llvm.lifetime.start.p0(i64 8, ptr %5) #12
  call void @llvm.lifetime.start.p0(i64 8, ptr %6) #12
  call void @llvm.lifetime.start.p0(i64 4, ptr %7) #12
  %21 = load ptr, ptr @ReplicationSlotCtl, align 8
  %22 = getelementptr inbounds nuw %struct.ReplicationSlotCtlData, ptr %21, i32 0, i32 0
  %23 = load i32, ptr %3, align 4
  %24 = sext i32 %23 to i64
  %25 = getelementptr inbounds [1 x %struct.ReplicationSlot], ptr %22, i64 0, i64 %24
  store ptr %25, ptr %5, align 8
  %26 = load ptr, ptr %5, align 8
  %27 = getelementptr inbounds nuw %struct.ReplicationSlot, ptr %26, i32 0, i32 1
  %28 = load i8, ptr %27, align 1, !range !4, !noundef !5
  %29 = trunc i8 %28 to i1
  br i1 %29, label %31, label %30

30:                                               ; preds = %20
  store i32 5, ptr %4, align 4
  br label %97

31:                                               ; preds = %20
  %32 = load ptr, ptr %5, align 8
  %33 = getelementptr inbounds nuw %struct.ReplicationSlot, ptr %32, i32 0, i32 7
  %34 = getelementptr inbounds nuw %struct.ReplicationSlotPersistentData, ptr %33, i32 0, i32 1
  %35 = load i32, ptr %34, align 8
  %36 = icmp ne i32 %35, 0
  br i1 %36, label %38, label %37

37:                                               ; preds = %31
  store i32 5, ptr %4, align 4
  br label %97

38:                                               ; preds = %31
  %39 = load ptr, ptr %5, align 8
  %40 = getelementptr inbounds nuw %struct.ReplicationSlot, ptr %39, i32 0, i32 7
  %41 = getelementptr inbounds nuw %struct.ReplicationSlotPersistentData, ptr %40, i32 0, i32 1
  %42 = load i32, ptr %41, align 8
  %43 = load i32, ptr %2, align 4
  %44 = icmp ne i32 %42, %43
  br i1 %44, label %45, label %46

45:                                               ; preds = %38
  store i32 5, ptr %4, align 4
  br label %97

46:                                               ; preds = %38
  %47 = load ptr, ptr %5, align 8
  %48 = getelementptr inbounds nuw %struct.ReplicationSlot, ptr %47, i32 0, i32 0
  %49 = call i32 @tas(ptr noundef %48)
  %50 = icmp ne i32 %49, 0
  br i1 %50, label %51, label %55

51:                                               ; preds = %46
  %52 = load ptr, ptr %5, align 8
  %53 = getelementptr inbounds nuw %struct.ReplicationSlot, ptr %52, i32 0, i32 0
  %54 = call i32 @s_lock(ptr noundef %53, ptr noundef @.str.6, i32 noundef 1334, ptr noundef @__func__.ReplicationSlotsDropDBSlots)
  br label %56

55:                                               ; preds = %46
  br label %56

56:                                               ; preds = %55, %51
  %57 = load ptr, ptr %5, align 8
  %58 = getelementptr inbounds nuw %struct.ReplicationSlot, ptr %57, i32 0, i32 7
  %59 = getelementptr inbounds nuw %struct.ReplicationSlotPersistentData, ptr %58, i32 0, i32 0
  %60 = getelementptr inbounds nuw %struct.nameData, ptr %59, i32 0, i32 0
  %61 = getelementptr inbounds [64 x i8], ptr %60, i64 0, i64 0
  store ptr %61, ptr %6, align 8
  %62 = load ptr, ptr %5, align 8
  %63 = getelementptr inbounds nuw %struct.ReplicationSlot, ptr %62, i32 0, i32 2
  %64 = load i32, ptr %63, align 4
  store i32 %64, ptr %7, align 4
  %65 = load i32, ptr %7, align 4
  %66 = icmp eq i32 %65, 0
  br i1 %66, label %67, label %72

67:                                               ; preds = %56
  %68 = load ptr, ptr %5, align 8
  store ptr %68, ptr @MyReplicationSlot, align 8
  %69 = load i32, ptr @MyProcPid, align 4
  %70 = load ptr, ptr %5, align 8
  %71 = getelementptr inbounds nuw %struct.ReplicationSlot, ptr %70, i32 0, i32 2
  store i32 %69, ptr %71, align 4
  br label %72

72:                                               ; preds = %67, %56
  br label %73

73:                                               ; preds = %72
  call void asm sideeffect "", "~{memory},~{dirflag},~{fpsr},~{flags}"() #12, !srcloc !38
  %74 = load ptr, ptr %5, align 8
  %75 = getelementptr inbounds nuw %struct.ReplicationSlot, ptr %74, i32 0, i32 0
  store i8 0, ptr %75, align 8
  br label %76

76:                                               ; preds = %73
  br label %77

77:                                               ; preds = %76
  %78 = load i32, ptr %7, align 4
  %79 = icmp ne i32 %78, 0
  br i1 %79, label %80, label %94

80:                                               ; preds = %77
  br label %81

81:                                               ; preds = %80
  br i1 true, label %82, label %84

82:                                               ; preds = %81
  %83 = call zeroext i1 @errstart_cold(i32 noundef 21, ptr noundef null) #14
  br i1 %83, label %86, label %91

84:                                               ; preds = %81
  %85 = call zeroext i1 @errstart(i32 noundef 21, ptr noundef null)
  br i1 %85, label %86, label %91

86:                                               ; preds = %84, %82
  %87 = call i32 @errcode(i32 noundef 100663621)
  %88 = load ptr, ptr %6, align 8
  %89 = load i32, ptr %7, align 4
  %90 = call i32 (ptr, ...) @errmsg(ptr noundef @.str.18, ptr noundef %88, i32 noundef %89)
  call void @errfinish(ptr noundef @.str.6, i32 noundef 1370, ptr noundef @__func__.ReplicationSlotsDropDBSlots)
  br label %91

91:                                               ; preds = %86, %84, %82
  unreachable

92:                                               ; No predecessors!
  br label %93

93:                                               ; preds = %92
  br label %94

94:                                               ; preds = %93, %77
  %95 = load ptr, ptr @MainLWLockArray, align 8
  %96 = getelementptr inbounds %union.LWLockPadded, ptr %95, i64 37
  call void @LWLockRelease(ptr noundef %96)
  call void @ReplicationSlotDropAcquired()
  store i32 2, ptr %4, align 4
  br label %97

97:                                               ; preds = %94, %45, %37, %30
  call void @llvm.lifetime.end.p0(i64 4, ptr %7) #12
  call void @llvm.lifetime.end.p0(i64 8, ptr %6) #12
  call void @llvm.lifetime.end.p0(i64 8, ptr %5) #12
  %98 = load i32, ptr %4, align 4
  switch i32 %98, label %108 [
    i32 5, label %99
    i32 2, label %12
  ]

99:                                               ; preds = %97
  %100 = load i32, ptr %3, align 4
  %101 = add i32 %100, 1
  store i32 %101, ptr %3, align 4
  br label %16, !llvm.loop !39

102:                                              ; preds = %16
  %103 = load ptr, ptr @MainLWLockArray, align 8
  %104 = getelementptr inbounds %union.LWLockPadded, ptr %103, i64 37
  call void @LWLockRelease(ptr noundef %104)
  store i32 0, ptr %4, align 4
  br label %105

105:                                              ; preds = %102, %10
  call void @llvm.lifetime.end.p0(i64 4, ptr %3) #12
  %106 = load i32, ptr %4, align 4
  switch i32 %106, label %108 [
    i32 0, label %107
    i32 1, label %107
  ]

107:                                              ; preds = %105, %105
  ret void

108:                                              ; preds = %105, %97
  unreachable
}