; Function Attrs: nounwind uwtable
define dso_local void @ReplicationSlotsDropDBSlots(i32 noundef %0) local_unnamed_addr #0 {
  %2 = load i32, ptr @max_replication_slots, align 4
  %3 = icmp slt i32 %2, 1
  br i1 %3, label %45, label %.preheader

.preheader:                                       ; preds = %1
  %4 = load ptr, ptr @MainLWLockArray, align 8
  %5 = getelementptr inbounds nuw i8, ptr %4, i64 4736
  %6 = tail call zeroext i1 @LWLockAcquire(ptr noundef nonnull %5, i32 noundef 1) #17
  %7 = load i32, ptr @max_replication_slots, align 4
  %8 = icmp sgt i32 %7, 0
  br i1 %8, label %.lr.ph, label %._crit_edge

.lr.ph:                                           ; preds = %.preheader, %32
  %9 = phi i32 [ %40, %32 ], [ %7, %.preheader ]
  %10 = load ptr, ptr @ReplicationSlotCtl, align 8
  %wide.trip.count = zext nneg i32 %9 to i64
  br label %11

11:                                               ; preds = %.lr.ph, %42
  %indvars.iv = phi i64 [ 0, %.lr.ph ], [ %indvars.iv.next, %42 ]
  %12 = getelementptr inbounds nuw [1 x %struct.ReplicationSlot], ptr %10, i64 0, i64 %indvars.iv
  %13 = getelementptr inbounds nuw i8, ptr %12, i64 1
  %14 = load i8, ptr %13, align 1, !range !4, !noundef !5
  %15 = trunc nuw i8 %14 to i1
  br i1 %15, label %16, label %42

16:                                               ; preds = %11
  %17 = getelementptr inbounds nuw i8, ptr %12, i64 88
  %18 = load i32, ptr %17, align 8
  %.not = icmp ne i32 %18, 0
  %.not21 = icmp eq i32 %18, %0
  %or.cond = and i1 %.not, %.not21
  br i1 %or.cond, label %19, label %42

19:                                               ; preds = %16
  %20 = tail call i8 asm sideeffect "\09lock\09\09\09\0A\09xchgb\09$0,$1\09\0A", "=q,=*m,0,*m,~{memory},~{cc},~{dirflag},~{fpsr},~{flags}"(ptr nonnull elementtype(i8) %12, i8 1, ptr nonnull elementtype(i8) %12) #17, !srcloc !11
  %.not22 = icmp eq i8 %20, 0
  br i1 %.not22, label %23, label %21

21:                                               ; preds = %19
  %22 = tail call i32 @s_lock(ptr noundef nonnull %12, ptr noundef nonnull @.str.6, i32 noundef 1334, ptr noundef nonnull @__func__.ReplicationSlotsDropDBSlots) #17
  br label %23

23:                                               ; preds = %19, %21
  %24 = getelementptr inbounds nuw i8, ptr %12, i64 4
  %25 = load i32, ptr %24, align 4
  %26 = icmp eq i32 %25, 0
  br i1 %26, label %32, label %27

27:                                               ; preds = %23
  tail call void asm sideeffect "", "~{memory},~{dirflag},~{fpsr},~{flags}"() #17, !srcloc !37
  store i8 0, ptr %12, align 8
  %28 = getelementptr inbounds nuw i8, ptr %12, i64 24
  %29 = tail call zeroext i1 @errstart_cold(i32 noundef 21, ptr noundef null) #19
  tail call void @llvm.assume(i1 %29)
  %30 = tail call i32 @errcode(i32 noundef 100663621) #17
  %31 = tail call i32 (ptr, ...) @errmsg(ptr noundef nonnull @.str.18, ptr noundef nonnull %28, i32 noundef %25) #17
  tail call void @errfinish(ptr noundef nonnull @.str.6, i32 noundef 1370, ptr noundef nonnull @__func__.ReplicationSlotsDropDBSlots) #17
  unreachable

32:                                               ; preds = %23
  store ptr %12, ptr @MyReplicationSlot, align 8
  %33 = load i32, ptr @MyProcPid, align 4
  store i32 %33, ptr %24, align 4
  tail call void asm sideeffect "", "~{memory},~{dirflag},~{fpsr},~{flags}"() #17, !srcloc !37
  store i8 0, ptr %12, align 8
  %34 = load ptr, ptr @MainLWLockArray, align 8
  %35 = getelementptr inbounds nuw i8, ptr %34, i64 4736
  tail call void @LWLockRelease(ptr noundef nonnull %35) #17
  %36 = load ptr, ptr @MyReplicationSlot, align 8
  store ptr null, ptr @MyReplicationSlot, align 8
  tail call fastcc void @ReplicationSlotDropPtr(ptr noundef %36)
  %37 = load ptr, ptr @MainLWLockArray, align 8
  %38 = getelementptr inbounds nuw i8, ptr %37, i64 4736
  %39 = tail call zeroext i1 @LWLockAcquire(ptr noundef nonnull %38, i32 noundef 1) #17
  %40 = load i32, ptr @max_replication_slots, align 4
  %41 = icmp sgt i32 %40, 0
  br i1 %41, label %.lr.ph, label %._crit_edge

42:                                               ; preds = %11, %16
  %indvars.iv.next = add nuw nsw i64 %indvars.iv, 1
  %exitcond.not = icmp eq i64 %indvars.iv.next, %wide.trip.count
  br i1 %exitcond.not, label %._crit_edge, label %11, !llvm.loop !38

._crit_edge:                                      ; preds = %32, %42, %.preheader
  %43 = load ptr, ptr @MainLWLockArray, align 8
  %44 = getelementptr inbounds nuw i8, ptr %43, i64 4736
  tail call void @LWLockRelease(ptr noundef nonnull %44) #17
  br label %45

45:                                               ; preds = %1, %._crit_edge
  ret void
}